target datalayout = "e-m:e-p270:32:32-p271:32:32-p272:64:64-i64:64-i128:128-f80:128-n8:16:32:64-S128"
target triple = "x86_64-pc-linux-gnu"

%struct.PREDICATELOCKTARGETTAG = type { i32, i32, i32, i32 }
%struct.LWLock = type { i16, %struct.pg_atomic_uint32, %struct.proclist_head }
%struct.pg_atomic_uint32 = type { i32 }
%struct.proclist_head = type { i32, i32 }
%struct.dlist_head = type { %struct.dlist_node }
%struct.dlist_node = type { ptr, ptr }
%struct.SERIALIZABLEXACT = type { %struct.VirtualTransactionId, i64, i64, %union.anon, %struct.dlist_head, %struct.dlist_head, %struct.dlist_head, %struct.dlist_node, %struct.dlist_node, %struct.LWLock, %struct.dlist_head, i32, i32, i32, i32, i32, i32 }
%struct.VirtualTransactionId = type { i32, i32 }
%union.anon = type { i64 }
%struct.RelationData = type { %struct.RelFileLocator, ptr, i32, i32, i8, i8, i8, i8, i8, i32, i32, i32, i32, ptr, ptr, i32, %struct.LockInfoData, ptr, ptr, ptr, ptr, ptr, i8, ptr, ptr, ptr, ptr, ptr, ptr, i32, ptr, i8, ptr, ptr, i32, i8, i32, ptr, i8, ptr, ptr, ptr, ptr, ptr, ptr, ptr, i32, ptr, ptr, ptr, ptr, ptr, ptr, ptr, ptr, ptr, ptr, ptr, ptr, ptr, ptr, ptr, ptr, ptr, ptr, ptr, i32, i8, ptr }
%struct.RelFileLocator = type { i32, i32, i32 }
%struct.LockInfoData = type { %struct.LockRelId }
%struct.LockRelId = type { i32, i32 }
%struct.FormData_pg_class = type { i32, %struct.nameData, i32, i32, i32, i32, i32, i32, i32, i32, float, i32, i32, i8, i8, i8, i8, i16, i16, i8, i8, i8, i8, i8, i8, i8, i8, i32, i32, i32 }
%struct.nameData = type { [64 x i8] }
%struct.ItemPointerData = type { %struct.BlockIdData, i16 }
%struct.BlockIdData = type { i16, i16 }

@.str.10 = private unnamed_addr constant [12 x i8] c"predicate.c\00", align 1
@MySerializableXact = internal global ptr null, align 8
@MyXactDidWrite = internal global i8 0, align 1
@.str.12 = private unnamed_addr constant [77 x i8] c"could not serialize access due to read/write dependencies among transactions\00", align 1
@.str.14 = private unnamed_addr constant [42 x i8] c"The transaction might succeed if retried.\00", align 1
@.str.18 = private unnamed_addr constant [81 x i8] c"Reason code: Canceled on identification as a pivot, during conflict in checking.\00", align 1
@__func__.CheckForSerializableConflictIn = private unnamed_addr constant [31 x i8] c"CheckForSerializableConflictIn\00", align 1

; Function Attrs: inlinehint nounwind uwtable
define internal i32 @BlockIdGetBlockNumber(ptr noundef %0) #3 {
  %2 = alloca ptr, align 8
  store ptr %0, ptr %2, align 8
  %3 = load ptr, ptr %2, align 8
  %4 = getelementptr inbounds nuw %struct.BlockIdData, ptr %3, i32 0, i32 0
  %5 = load i16, ptr %4, align 2
  %6 = zext i16 %5 to i32
  %7 = shl i32 %6, 16
  %8 = load ptr, ptr %2, align 8
  %9 = getelementptr inbounds nuw %struct.BlockIdData, ptr %8, i32 0, i32 1
  %10 = load i16, ptr %9, align 2
  %11 = zext i16 %10 to i32
  %12 = or i32 %7, %11
  ret i32 %12
}

; Function Attrs: inlinehint nounwind uwtable
define internal zeroext i16 @ItemPointerGetOffsetNumberNoCheck(ptr noundef %0) #3 {
  %2 = alloca ptr, align 8
  store ptr %0, ptr %2, align 8
  %3 = load ptr, ptr %2, align 8
  %4 = getelementptr inbounds nuw %struct.ItemPointerData, ptr %3, i32 0, i32 1
  %5 = load i16, ptr %4, align 2
  ret i16 %5
}

; Function Attrs: inlinehint nounwind uwtable
define internal i32 @ItemPointerGetBlockNumberNoCheck(ptr noundef %0) #3 {
  %2 = alloca ptr, align 8
  store ptr %0, ptr %2, align 8
  %3 = load ptr, ptr %2, align 8
  %4 = getelementptr inbounds nuw %struct.ItemPointerData, ptr %3, i32 0, i32 0
  %5 = call i32 @BlockIdGetBlockNumber(ptr noundef %4)
  ret i32 %5
}

; Function Attrs: inlinehint nounwind uwtable
define internal zeroext i1 @PredicateLockingNeededForRelation(ptr noundef %0) #3 {
  %2 = alloca ptr, align 8
  store ptr %0, ptr %2, align 8
  %3 = load ptr, ptr %2, align 8
  %4 = getelementptr inbounds nuw %struct.RelationData, ptr %3, i32 0, i32 15
  %5 = load i32, ptr %4, align 8
  %6 = icmp ult i32 %5, 12000
  br i1 %6, label %15, label %7

7:                                                ; preds = %1
  %8 = load ptr, ptr %2, align 8
  %9 = getelementptr inbounds nuw %struct.RelationData, ptr %8, i32 0, i32 13
  %10 = load ptr, ptr %9, align 8
  %11 = getelementptr inbounds nuw %struct.FormData_pg_class, ptr %10, i32 0, i32 15
  %12 = load i8, ptr %11, align 2
  %13 = sext i8 %12 to i32
  %14 = icmp eq i32 %13, 116
  br label %15

15:                                               ; preds = %7, %1
  %16 = phi i1 [ true, %1 ], [ %14, %7 ]
  %17 = xor i1 %16, true
  ret i1 %17
}

; Function Attrs: inlinehint nounwind uwtable
define internal zeroext i16 @ItemPointerGetOffsetNumber(ptr noundef %0) #3 {
  %2 = alloca ptr, align 8
  store ptr %0, ptr %2, align 8
  %3 = load ptr, ptr %2, align 8
  %4 = call zeroext i16 @ItemPointerGetOffsetNumberNoCheck(ptr noundef %3)
  ret i16 %4
}

; Function Attrs: inlinehint nounwind uwtable
define internal i32 @ItemPointerGetBlockNumber(ptr noundef %0) #3 {
  %2 = alloca ptr, align 8
  store ptr %0, ptr %2, align 8
  %3 = load ptr, ptr %2, align 8
  %4 = call i32 @ItemPointerGetBlockNumberNoCheck(ptr noundef %3)
  ret i32 %4
}

; Function Attrs: inlinehint nounwind uwtable
define internal zeroext i1 @SerializationNeededForWrite(ptr noundef %0) #3 {
  %2 = alloca i1, align 1
  %3 = alloca ptr, align 8
  store ptr %0, ptr %3, align 8
  %4 = load ptr, ptr @MySerializableXact, align 8
  %5 = icmp eq ptr %4, null
  br i1 %5, label %6, label %7

6:                                                ; preds = %1
  store i1 false, ptr %2, align 1
  br label %12

7:                                                ; preds = %1
  %8 = load ptr, ptr %3, align 8
  %9 = call zeroext i1 @PredicateLockingNeededForRelation(ptr noundef %8)
  br i1 %9, label %11, label %10

10:                                               ; preds = %7
  store i1 false, ptr %2, align 1
  br label %12

11:                                               ; preds = %7
  store i1 true, ptr %2, align 1
  br label %12

12:                                               ; preds = %11, %10, %6
  %13 = load i1, ptr %2, align 1
  ret i1 %13
}

; Function Attrs: nounwind uwtable
define dso_local void @CheckForSerializableConflictIn(ptr noundef %0, ptr noundef %1, i32 noundef %2) #0 {
  %4 = alloca ptr, align 8
  %5 = alloca ptr, align 8
  %6 = alloca i32, align 4
  %7 = alloca %struct.PREDICATELOCKTARGETTAG, align 4
  %8 = alloca i32, align 4
  store ptr %0, ptr %4, align 8
  store ptr %1, ptr %5, align 8
  store i32 %2, ptr %6, align 4
  call void @llvm.lifetime.start.p0(i64 16, ptr %7) #10
  %9 = load ptr, ptr %4, align 8
  %10 = call zeroext i1 @SerializationNeededForWrite(ptr noundef %9)
  br i1 %10, label %12, label %11

11:                                               ; preds = %3
  store i32 1, ptr %8, align 4
  br label %80

12:                                               ; preds = %3
  %13 = load ptr, ptr @MySerializableXact, align 8
  %14 = getelementptr inbounds nuw %struct.SERIALIZABLEXACT, ptr %13, i32 0, i32 14
  %15 = load i32, ptr %14, align 4
  %16 = and i32 %15, 8
  %17 = icmp ne i32 %16, 0
  br i1 %17, label %18, label %32

18:                                               ; preds = %12
  br label %19

19:                                               ; preds = %18
  br i1 true, label %20, label %22

20:                                               ; preds = %19
  %21 = call zeroext i1 @errstart_cold(i32 noundef 21, ptr noundef null) #11
  br i1 %21, label %24, label %29

22:                                               ; preds = %19
  %23 = call zeroext i1 @errstart(i32 noundef 21, ptr noundef null)
  br i1 %23, label %24, label %29

24:                                               ; preds = %22, %20
  %25 = call i32 @errcode(i32 noundef 16777220)
  %26 = call i32 (ptr, ...) @errmsg(ptr noundef @.str.12)
  %27 = call i32 (ptr, ...) @errdetail_internal(ptr noundef @.str.18)
  %28 = call i32 (ptr, ...) @errhint(ptr noundef @.str.14)
  call void @errfinish(ptr noundef @.str.10, i32 noundef 4339, ptr noundef @__func__.CheckForSerializableConflictIn)
  br label %29

29:                                               ; preds = %24, %22, %20
  unreachable

30:                                               ; No predecessors!
  br label %31

31:                                               ; preds = %30
  br label %32

32:                                               ; preds = %31, %12
  store i8 1, ptr @MyXactDidWrite, align 1
  %33 = load ptr, ptr %5, align 8
  %34 = icmp ne ptr %33, null
  br i1 %34, label %35, label %52

35:                                               ; preds = %32
  %36 = load ptr, ptr %4, align 8
  %37 = getelementptr inbounds nuw %struct.RelationData, ptr %36, i32 0, i32 0
  %38 = getelementptr inbounds nuw %struct.RelFileLocator, ptr %37, i32 0, i32 1
  %39 = load i32, ptr %38, align 4
  %40 = getelementptr inbounds nuw %struct.PREDICATELOCKTARGETTAG, ptr %7, i32 0, i32 0
  store i32 %39, ptr %40, align 4
  %41 = load ptr, ptr %4, align 8
  %42 = getelementptr inbounds nuw %struct.RelationData, ptr %41, i32 0, i32 15
  %43 = load i32, ptr %42, align 8
  %44 = getelementptr inbounds nuw %struct.PREDICATELOCKTARGETTAG, ptr %7, i32 0, i32 1
  store i32 %43, ptr %44, align 4
  %45 = load ptr, ptr %5, align 8
  %46 = call i32 @ItemPointerGetBlockNumber(ptr noundef %45)
  %47 = getelementptr inbounds nuw %struct.PREDICATELOCKTARGETTAG, ptr %7, i32 0, i32 2
  store i32 %46, ptr %47, align 4
  %48 = load ptr, ptr %5, align 8
  %49 = call zeroext i16 @ItemPointerGetOffsetNumber(ptr noundef %48)
  %50 = zext i16 %49 to i32
  %51 = getelementptr inbounds nuw %struct.PREDICATELOCKTARGETTAG, ptr %7, i32 0, i32 3
  store i32 %50, ptr %51, align 4
  call void @CheckTargetForConflictsIn(ptr noundef %7)
  br label %52

52:                                               ; preds = %35, %32
  %53 = load i32, ptr %6, align 4
  %54 = icmp ne i32 %53, -1
  br i1 %54, label %55, label %68

55:                                               ; preds = %52
  %56 = load ptr, ptr %4, align 8
  %57 = getelementptr inbounds nuw %struct.RelationData, ptr %56, i32 0, i32 0
  %58 = getelementptr inbounds nuw %struct.RelFileLocator, ptr %57, i32 0, i32 1
  %59 = load i32, ptr %58, align 4
  %60 = getelementptr inbounds nuw %struct.PREDICATELOCKTARGETTAG, ptr %7, i32 0, i32 0
  store i32 %59, ptr %60, align 4
  %61 = load ptr, ptr %4, align 8
  %62 = getelementptr inbounds nuw %struct.RelationData, ptr %61, i32 0, i32 15
  %63 = load i32, ptr %62, align 8
  %64 = getelementptr inbounds nuw %struct.PREDICATELOCKTARGETTAG, ptr %7, i32 0, i32 1
  store i32 %63, ptr %64, align 4
  %65 = load i32, ptr %6, align 4
  %66 = getelementptr inbounds nuw %struct.PREDICATELOCKTARGETTAG, ptr %7, i32 0, i32 2
  store i32 %65, ptr %66, align 4
  %67 = getelementptr inbounds nuw %struct.PREDICATELOCKTARGETTAG, ptr %7, i32 0, i32 3
  store i32 0, ptr %67, align 4
  call void @CheckTargetForConflictsIn(ptr noundef %7)
  br label %68

68:                                               ; preds = %55, %52
  %69 = load ptr, ptr %4, align 8
  %70 = getelementptr inbounds nuw %struct.RelationData, ptr %69, i32 0, i32 0
  %71 = getelementptr inbounds nuw %struct.RelFileLocator, ptr %70, i32 0, i32 1
  %72 = load i32, ptr %71, align 4
  %73 = getelementptr inbounds nuw %struct.PREDICATELOCKTARGETTAG, ptr %7, i32 0, i32 0
  store i32 %72, ptr %73, align 4
  %74 = load ptr, ptr %4, align 8
  %75 = getelementptr inbounds nuw %struct.RelationData, ptr %74, i32 0, i32 15
  %76 = load i32, ptr %75, align 8
  %77 = getelementptr inbounds nuw %struct.PREDICATELOCKTARGETTAG, ptr %7, i32 0, i32 1
  store i32 %76, ptr %77, align 4
  %78 = getelementptr inbounds nuw %struct.PREDICATELOCKTARGETTAG, ptr %7, i32 0, i32 2
  store i32 -1, ptr %78, align 4
  %79 = getelementptr inbounds nuw %struct.PREDICATELOCKTARGETTAG, ptr %7, i32 0, i32 3
  store i32 0, ptr %79, align 4
  call void @CheckTargetForConflictsIn(ptr noundef %7)
  store i32 0, ptr %8, align 4
  br label %80

80:                                               ; preds = %68, %11
  call void @llvm.lifetime.end.p0(i64 16, ptr %7) #10
  %81 = load i32, ptr %8, align 4
  switch i32 %81, label %83 [
    i32 0, label %82
    i32 1, label %82
  ]

82:                                               ; preds = %80, %80
  ret void

83:                                               ; preds = %80
  unreachable
}