; Function Attrs: nounwind uwtable
define dso_local void @CheckForSerializableConflictIn(ptr noundef readonly captures(none) %0, ptr noundef readonly captures(address_is_null) %1, i32 noundef %2) local_unnamed_addr #0 {
  %4 = alloca %struct.PREDICATELOCKTARGETTAG, align 4
  call void @llvm.lifetime.start.p0(i64 16, ptr nonnull %4) #12
  %5 = load ptr, ptr @MySerializableXact, align 8
  %6 = icmp eq ptr %5, null
  br i1 %6, label %SerializationNeededForWrite.exit.thread, label %7

7:                                                ; preds = %3
  %8 = getelementptr inbounds nuw i8, ptr %0, i64 72
  %9 = load i32, ptr %8, align 8
  %10 = icmp ult i32 %9, 12000
  br i1 %10, label %SerializationNeededForWrite.exit.thread, label %SerializationNeededForWrite.exit

SerializationNeededForWrite.exit:                 ; preds = %7
  %11 = getelementptr inbounds nuw i8, ptr %0, i64 56
  %12 = load ptr, ptr %11, align 8
  %13 = getelementptr inbounds nuw i8, ptr %12, i64 114
  %14 = load i8, ptr %13, align 2
  %.not17 = icmp eq i8 %14, 116
  br i1 %.not17, label %SerializationNeededForWrite.exit.thread, label %15

15:                                               ; preds = %SerializationNeededForWrite.exit
  %16 = getelementptr inbounds nuw i8, ptr %5, i64 156
  %17 = load i32, ptr %16, align 4
  %18 = and i32 %17, 8
  %.not = icmp eq i32 %18, 0
  br i1 %.not, label %25, label %19

19:                                               ; preds = %15
  %20 = tail call zeroext i1 @errstart_cold(i32 noundef 21, ptr noundef null) #13
  tail call void @llvm.assume(i1 %20)
  %21 = tail call i32 @errcode(i32 noundef 16777220) #12
  %22 = tail call i32 (ptr, ...) @errmsg(ptr noundef nonnull @.str.12) #12
  %23 = tail call i32 (ptr, ...) @errdetail_internal(ptr noundef nonnull @.str.18) #12
  %24 = tail call i32 (ptr, ...) @errhint(ptr noundef nonnull @.str.14) #12
  tail call void @errfinish(ptr noundef nonnull @.str.10, i32 noundef 4339, ptr noundef nonnull @__func__.CheckForSerializableConflictIn) #12
  unreachable

25:                                               ; preds = %15
  store i1 true, ptr @MyXactDidWrite, align 1
  %.not12 = icmp eq ptr %1, null
  br i1 %.not12, label %39, label %26

26:                                               ; preds = %25
  %27 = getelementptr inbounds nuw i8, ptr %0, i64 4
  %28 = load i32, ptr %27, align 4
  store i32 %28, ptr %4, align 4
  %29 = getelementptr inbounds nuw i8, ptr %4, i64 4
  store i32 %9, ptr %29, align 4
  %.val = load i16, ptr %1, align 2
  %30 = getelementptr i8, ptr %1, i64 2
  %.val14 = load i16, ptr %30, align 2
  %31 = zext i16 %.val to i32
  %32 = shl nuw i32 %31, 16
  %33 = zext i16 %.val14 to i32
  %34 = or disjoint i32 %32, %33
  %35 = getelementptr inbounds nuw i8, ptr %4, i64 8
  store i32 %34, ptr %35, align 4
  %36 = getelementptr i8, ptr %1, i64 4
  %.val15 = load i16, ptr %36, align 2
  %37 = zext i16 %.val15 to i32
  %38 = getelementptr inbounds nuw i8, ptr %4, i64 12
  store i32 %37, ptr %38, align 4
  call fastcc void @CheckTargetForConflictsIn(ptr noundef %4)
  %.pre18.pre = load i32, ptr %8, align 8
  br label %39

39:                                               ; preds = %26, %25
  %.pre18 = phi i32 [ %.pre18.pre, %26 ], [ %9, %25 ]
  %.not13 = icmp eq i32 %2, -1
  br i1 %.not13, label %46, label %40

40:                                               ; preds = %39
  %41 = getelementptr inbounds nuw i8, ptr %0, i64 4
  %42 = load i32, ptr %41, align 4
  store i32 %42, ptr %4, align 4
  %43 = getelementptr inbounds nuw i8, ptr %4, i64 4
  store i32 %.pre18, ptr %43, align 4
  %44 = getelementptr inbounds nuw i8, ptr %4, i64 8
  store i32 %2, ptr %44, align 4
  %45 = getelementptr inbounds nuw i8, ptr %4, i64 12
  store i32 0, ptr %45, align 4
  call fastcc void @CheckTargetForConflictsIn(ptr noundef %4)
  %.pre = load i32, ptr %8, align 8
  br label %46

46:                                               ; preds = %40, %39
  %47 = phi i32 [ %.pre, %40 ], [ %.pre18, %39 ]
  %48 = getelementptr inbounds nuw i8, ptr %0, i64 4
  %49 = load i32, ptr %48, align 4
  store i32 %49, ptr %4, align 4
  %50 = getelementptr inbounds nuw i8, ptr %4, i64 4
  store i32 %47, ptr %50, align 4
  %51 = getelementptr inbounds nuw i8, ptr %4, i64 8
  store i32 -1, ptr %51, align 4
  %52 = getelementptr inbounds nuw i8, ptr %4, i64 12
  store i32 0, ptr %52, align 4
  call fastcc void @CheckTargetForConflictsIn(ptr noundef %4)
  br label %SerializationNeededForWrite.exit.thread

SerializationNeededForWrite.exit.thread:          ; preds = %7, %3, %SerializationNeededForWrite.exit, %46
  call void @llvm.lifetime.end.p0(i64 16, ptr nonnull %4) #12
  ret void
}